; Function Attrs: mustprogress uwtable
define void @_ZN30MLRenderingBBoxParametersFrame19setAssociatedMeshIdEi(ptr nocapture noundef nonnull align 8 dereferenceable(96) %0, i32 noundef %1) unnamed_addr #3 align 2 {
  %3 = getelementptr inbounds i8, ptr %0, i64 48
  store i32 %1, ptr %3, align 8
  %4 = getelementptr inbounds i8, ptr %0, i64 64
  %5 = load ptr, ptr %4, align 8
  tail call void @_ZN18MLRenderingToolbar19setAssociatedMeshIdEi(ptr noundef nonnull align 8 dereferenceable(96) %5, i32 noundef %1)
  %6 = getelementptr inbounds i8, ptr %0, i64 88
  %7 = load ptr, ptr %6, align 8
  %8 = getelementptr inbounds i8, ptr %7, i64 48
  store i32 %1, ptr %8, align 8
  %9 = getelementptr inbounds i8, ptr %7, i64 56
  %10 = load ptr, ptr %9, align 8
  %.not.i = icmp eq ptr %10, null
  br i1 %.not.i, label %_ZN23MLRenderingOnOffToolbar19setAssociatedMeshIdEi.exit, label %11

11:                                               ; preds = %2
  tail call void @_ZN17MLRenderingAction9setMeshIdEi(ptr noundef nonnull align 8 dereferenceable(16) %10, i32 noundef %1)
  br label %_ZN23MLRenderingOnOffToolbar19setAssociatedMeshIdEi.exit

_ZN23MLRenderingOnOffToolbar19setAssociatedMeshIdEi.exit: ; preds = %2, %11
  ret void
}